target datalayout = "e-m:e-p270:32:32-p271:32:32-p272:64:64-i64:64-i128:128-f80:128-n8:16:32:64-S128"
target triple = "x86_64-pc-linux-gnu"

%class.LogTagSet = type { ptr, i64, [5 x i32], [4 x i8], %class.LogOutputList, %class.LogDecorators, ptr }
%class.LogOutputList = type <{ [6 x ptr], i32, [4 x i8] }>
%class.LogDecorators = type { i32 }
%class.G1CMIsAliveClosure = type { %class.BoolObjectClosure, ptr }
%class.BoolObjectClosure = type { ptr }
%class.BitMap = type { ptr, i64 }
%class.G1MappingChangedListener = type { ptr }
%class.MemRegion = type { ptr, i64 }
%class.G1CMSubjectToDiscoveryClosure = type { %class.BoolObjectClosure, ptr }
%class.G1STWIsAliveClosure = type { %class.BoolObjectClosure, ptr }
%class.TimeInstant = type { %class.CompositeCounterRepresentation }
%class.CompositeCounterRepresentation = type { %class.Representation }
%class.Representation = type { %class.PairRep }
%class.PairRep = type { i64, i64 }
%class.G1CollectedHeap = type { %class.CollectedHeap, ptr, ptr, ptr, ptr, ptr, %class.TimeInstant, %class.G1HeapRegionSet, %class.G1HeapRegionSet, %class.G1MonotonicArenaMemoryStats, %class.G1MonotonicArenaMemoryStats, ptr, %class.G1RegionMappingChangedListener, ptr, %class.G1HeapRegionManager, ptr, %class.G1YoungGCAllocationFailureInjector, ptr, i64, i64, %class.G1EvacStats, %class.G1EvacStats, ptr, i32, i32, %class.G1CollectorState, i32, i32, %class.G1EdenRegions, %class.G1SurvivorRegions, ptr, ptr, ptr, ptr, %class.G1CollectionSet, ptr, %class.G1CardSetConfiguration, %class.G1MonotonicArenaFreePool, ptr, ptr, ptr, ptr, ptr, %class.G1STWIsAliveClosure, %class.G1STWSubjectToDiscoveryClosure, ptr, %class.G1CMIsAliveClosure, %class.G1CMSubjectToDiscoveryClosure, %class.G1HeapRegionAttrBiasedMappedArray }
%class.CollectedHeap = type { ptr, ptr, i64, i64, %class.SoftRefPolicy, %class.MemRegion, i8, i64, i32, i32, i32, i32, ptr, ptr }
%class.SoftRefPolicy = type { i8, i8 }
%class.G1HeapRegionSet = type { %class.G1HeapRegionSetBase.base, [7 x i8] }
%class.G1HeapRegionSetBase.base = type <{ ptr, ptr, i32, [4 x i8], ptr, i8 }>
%class.G1MonotonicArenaMemoryStats = type { [4 x i64], [4 x i64] }
%class.G1RegionMappingChangedListener = type { %class.G1MappingChangedListener }
%class.G1HeapRegionManager = type { ptr, ptr, %class.G1CommittedRegionMap, i32, [4 x i8], %class.G1HeapRegionTable, ptr, ptr, %class.G1FreeRegionList }
%class.G1CommittedRegionMap = type { ptr, %class.CHeapBitMap, %class.CHeapBitMap, i32, i32 }
%class.CHeapBitMap = type <{ %class.GrowableBitMap, i8, [7 x i8] }>
%class.GrowableBitMap = type { %class.BitMap }
%class.G1HeapRegionTable = type { %class.G1BiasedMappedArray.base, [4 x i8] }
%class.G1BiasedMappedArray.base = type { %class.G1BiasedMappedArrayBase.base }
%class.G1BiasedMappedArrayBase.base = type <{ ptr, ptr, ptr, i64, ptr, i64, i32 }>
%class.G1FreeRegionList = type { %class.G1HeapRegionSetBase.base, ptr, ptr, ptr, ptr }
%class.G1YoungGCAllocationFailureInjector = type { i8 }
%class.G1EvacStats = type { %class.PLABStats, i64, i64, %class.AdaptiveWeightedAverage, i64, i32, i64, i64, i64, i64, i64 }
%class.PLABStats = type { ptr, ptr, i64, i64, i64, i64 }
%class.AdaptiveWeightedAverage = type { float, i32, i32, i8, float }
%class.G1CollectorState = type { i8, i8, i8, i8, i8, i8, i8 }
%class.G1EdenRegions = type { i32, i64, %class.G1RegionsOnNodes }
%class.G1RegionsOnNodes = type { ptr, ptr }
%class.G1SurvivorRegions = type { ptr, i64, %class.G1RegionsOnNodes }
%class.G1CollectionSet = type { ptr, ptr, %class.G1CollectionSetCandidates, ptr, i32, i32, i32, i32, i32, %class.G1CollectionCandidateRegionList, i32, i64 }
%class.G1CollectionSetCandidates = type { [8 x i8], %class.G1CollectionCandidateList, %class.G1CollectionCandidateList, ptr, i32, i32 }
%class.G1CollectionCandidateList = type { %class.GrowableArray }
%class.GrowableArray = type { %class.GrowableArrayWithAllocator, %class.GrowableArrayMetadata }
%class.GrowableArrayWithAllocator = type { %class.GrowableArrayView }
%class.GrowableArrayView = type { %class.GrowableArrayBase, ptr }
%class.GrowableArrayBase = type { i32, i32 }
%class.GrowableArrayMetadata = type { i64 }
%class.G1CollectionCandidateRegionList = type { %class.GrowableArray.2 }
%class.GrowableArray.2 = type { %class.GrowableArrayWithAllocator.3, %class.GrowableArrayMetadata }
%class.GrowableArrayWithAllocator.3 = type { %class.GrowableArrayView.4 }
%class.GrowableArrayView.4 = type { %class.GrowableArrayBase, ptr }
%class.G1CardSetConfiguration = type { i32, i32, i32, i32, i32, i32, i32, i32, i32, i32, i32, ptr }
%class.G1MonotonicArenaFreePool = type { i32, ptr }
%class.G1STWSubjectToDiscoveryClosure = type { %class.BoolObjectClosure, ptr }
%class.G1HeapRegionAttrBiasedMappedArray = type { %class.G1BiasedMappedArray.base.6, [4 x i8] }
%class.G1BiasedMappedArray.base.6 = type { %class.G1BiasedMappedArrayBase.base }

@_ZN12G1HeapRegion10GrainBytesE = external global i64, align 8
@.str.20 = private unnamed_addr constant [73 x i8] c"Expand the heap. requested expansion amount: %luB expansion amount: %luB\00", align 1
@.str.21 = private unnamed_addr constant [54 x i8] c"Did not expand the heap (heap already fully expanded)\00", align 1
@_ZN16LogTagSetMappingILN6LogTag4typeE49ELS1_40ELS1_52ELS1_0ELS1_0ELS1_0EE7_tagsetE = linkonce_odr hidden global %class.LogTagSet zeroinitializer, comdat, align 8

; Function Attrs: mustprogress nounwind uwtable
define linkonce_odr hidden noundef zeroext i1 @_ZNK13LogOutputList8is_levelEN8LogLevel4typeE(ptr noundef nonnull align 8 dereferenceable(52) %0, i32 noundef %1) #1 comdat align 2 {
  %3 = alloca ptr, align 8
  %4 = alloca i32, align 4
  store ptr %0, ptr %3, align 8
  store i32 %1, ptr %4, align 4
  %5 = load ptr, ptr %3, align 8
  %6 = getelementptr inbounds %class.LogOutputList, ptr %5, i32 0, i32 0
  %7 = load i32, ptr %4, align 4
  %8 = zext i32 %7 to i64
  %9 = getelementptr inbounds [6 x ptr], ptr %6, i64 0, i64 %8
  %10 = load volatile ptr, ptr %9, align 8
  %11 = icmp ne ptr %10, null
  ret i1 %11
}

; Function Attrs: mustprogress nounwind uwtable
define linkonce_odr hidden noundef i32 @_ZNK19G1HeapRegionManager6lengthEv(ptr noundef nonnull align 8 dereferenceable(232) %0) #1 comdat align 2 {
  %2 = alloca ptr, align 8
  store ptr %0, ptr %2, align 8
  %3 = load ptr, ptr %2, align 8
  %4 = getelementptr inbounds %class.G1HeapRegionManager, ptr %3, i32 0, i32 2
  %5 = call noundef i32 @_ZNK20G1CommittedRegionMap10num_activeEv(ptr noundef nonnull align 8 dereferenceable(64) %4)
  ret i32 %5
}

; Function Attrs: mustprogress nounwind uwtable
define linkonce_odr hidden noundef zeroext i1 @_ZNK9LogTagSet8is_levelEN8LogLevel4typeE(ptr noundef nonnull align 8 dereferenceable(112) %0, i32 noundef %1) #1 comdat align 2 {
  %3 = alloca ptr, align 8
  %4 = alloca i32, align 4
  store ptr %0, ptr %3, align 8
  store i32 %1, ptr %4, align 4
  %5 = load ptr, ptr %3, align 8
  %6 = getelementptr inbounds %class.LogTagSet, ptr %5, i32 0, i32 4
  %7 = load i32, ptr %4, align 4
  %8 = call noundef zeroext i1 @_ZNK13LogOutputList8is_levelEN8LogLevel4typeE(ptr noundef nonnull align 8 dereferenceable(52) %6, i32 noundef %7)
  ret i1 %8
}

; Function Attrs: mustprogress nounwind uwtable
define linkonce_odr hidden noundef nonnull align 8 dereferenceable(112) ptr @_ZN16LogTagSetMappingILN6LogTag4typeE49ELS1_40ELS1_52ELS1_0ELS1_0ELS1_0EE6tagsetEv() #1 comdat align 2 {
  ret ptr @_ZN16LogTagSetMappingILN6LogTag4typeE49ELS1_40ELS1_52ELS1_0ELS1_0ELS1_0EE7_tagsetE
}

; Function Attrs: mustprogress nounwind uwtable
define linkonce_odr hidden noundef i64 @_Z10align_downImmTnNSt9enable_ifIXcvbsr3std11is_integralIT_EE5valueEiE4typeELi0EES1_S1_T0_(i64 noundef %0, i64 noundef %1) #1 comdat {
  %3 = alloca i64, align 8
  %4 = alloca i64, align 8
  %5 = alloca i64, align 8
  store i64 %0, ptr %3, align 8
  store i64 %1, ptr %4, align 8
  %6 = load i64, ptr %3, align 8
  %7 = load i64, ptr %4, align 8
  %8 = call noundef i64 @_ZL14alignment_maskImTnNSt9enable_ifIXcvbsr3std11is_integralIT_EE5valueEiE4typeELi0EES1_S1_(i64 noundef %7)
  %9 = xor i64 %8, -1
  %10 = and i64 %6, %9
  store i64 %10, ptr %5, align 8
  %11 = load i64, ptr %5, align 8
  ret i64 %11
}

; Function Attrs: mustprogress nounwind uwtable
define linkonce_odr hidden noundef i64 @_Z12checked_castImmET_T0_(i64 noundef %0) #1 comdat {
  %2 = alloca i64, align 8
  %3 = alloca i64, align 8
  store i64 %0, ptr %2, align 8
  %4 = load i64, ptr %2, align 8
  store i64 %4, ptr %3, align 8
  %5 = load i64, ptr %3, align 8
  ret i64 %5
}

; Function Attrs: mustprogress nounwind uwtable
define internal noundef i64 @_ZL14alignment_maskImTnNSt9enable_ifIXcvbsr3std11is_integralIT_EE5valueEiE4typeELi0EES1_S1_(i64 noundef %0) #1 {
  %2 = alloca i64, align 8
  store i64 %0, ptr %2, align 8
  %3 = load i64, ptr %2, align 8
  %4 = sub i64 %3, 1
  ret i64 %4
}

; Function Attrs: mustprogress nounwind uwtable
define linkonce_odr hidden noundef i32 @_ZNK15G1CollectedHeap11num_regionsEv(ptr noundef nonnull align 8 dereferenceable(1488) %0) #1 comdat align 2 {
  %2 = alloca ptr, align 8
  store ptr %0, ptr %2, align 8
  %3 = load ptr, ptr %2, align 8
  %4 = getelementptr inbounds %class.G1CollectedHeap, ptr %3, i32 0, i32 14
  %5 = call noundef i32 @_ZNK19G1HeapRegionManager6lengthEv(ptr noundef nonnull align 8 dereferenceable(232) %4)
  ret i32 %5
}

; Function Attrs: mustprogress nounwind uwtable
define linkonce_odr hidden noundef ptr @_ZNK15G1CollectedHeap6policyEv(ptr noundef nonnull align 8 dereferenceable(1488) %0) #1 comdat align 2 {
  %2 = alloca ptr, align 8
  store ptr %0, ptr %2, align 8
  %3 = load ptr, ptr %2, align 8
  %4 = getelementptr inbounds %class.G1CollectedHeap, ptr %3, i32 0, i32 32
  %5 = load ptr, ptr %4, align 8
  ret ptr %5
}

; Function Attrs: mustprogress nounwind uwtable
define linkonce_odr hidden noundef zeroext i1 @_ZN7LogImplILN6LogTag4typeE49ELS1_40ELS1_52ELS1_0ELS1_0ELS1_0EE8is_levelEN8LogLevel4typeE(i32 noundef %0) #1 comdat align 2 {
  %2 = alloca i32, align 4
  store i32 %0, ptr %2, align 4
  %3 = call noundef nonnull align 8 dereferenceable(112) ptr @_ZN16LogTagSetMappingILN6LogTag4typeE49ELS1_40ELS1_52ELS1_0ELS1_0ELS1_0EE6tagsetEv()
  %4 = load i32, ptr %2, align 4
  %5 = call noundef zeroext i1 @_ZNK9LogTagSet8is_levelEN8LogLevel4typeE(ptr noundef nonnull align 8 dereferenceable(112) %3, i32 noundef %4)
  ret i1 %5
}

; Function Attrs: mustprogress nounwind uwtable
define linkonce_odr hidden noundef i64 @_Z8align_upImmTnNSt9enable_ifIXcvbsr3std11is_integralIT_EE5valueEiE4typeELi0EES1_S1_T0_(i64 noundef %0, i64 noundef %1) #1 comdat {
  %3 = alloca i64, align 8
  %4 = alloca i64, align 8
  %5 = alloca i64, align 8
  store i64 %0, ptr %3, align 8
  store i64 %1, ptr %4, align 8
  %6 = load i64, ptr %3, align 8
  %7 = load i64, ptr %4, align 8
  %8 = call noundef i64 @_ZL14alignment_maskImTnNSt9enable_ifIXcvbsr3std11is_integralIT_EE5valueEiE4typeELi0EES1_S1_(i64 noundef %7)
  %9 = add i64 %6, %8
  %10 = call noundef i64 @_Z12checked_castImmET_T0_(i64 noundef %9)
  store i64 %10, ptr %5, align 8
  %11 = load i64, ptr %5, align 8
  %12 = load i64, ptr %4, align 8
  %13 = call noundef i64 @_Z10align_downImmTnNSt9enable_ifIXcvbsr3std11is_integralIT_EE5valueEiE4typeELi0EES1_S1_T0_(i64 noundef %11, i64 noundef %12)
  ret i64 %13
}

; Function Attrs: mustprogress nounwind uwtable
define hidden noundef zeroext i1 @_ZN15G1CollectedHeap6expandEmP13WorkerThreadsPd(ptr noundef nonnull align 8 dereferenceable(1488) %0, i64 noundef %1, ptr noundef %2, ptr noundef %3) #1 align 2 {
  %5 = alloca i1, align 1
  %6 = alloca ptr, align 8
  %7 = alloca i64, align 8
  %8 = alloca ptr, align 8
  %9 = alloca ptr, align 8
  %10 = alloca i64, align 8
  %11 = alloca double, align 8
  %12 = alloca i32, align 4
  %13 = alloca i32, align 4
  %14 = alloca i64, align 8
  store ptr %0, ptr %6, align 8
  store i64 %1, ptr %7, align 8
  store ptr %2, ptr %8, align 8
  store ptr %3, ptr %9, align 8
  %15 = load ptr, ptr %6, align 8
  %16 = load i64, ptr %7, align 8
  %17 = call noundef i64 @_ZN13ReservedSpace18page_align_size_upEm(i64 noundef %16)
  store i64 %17, ptr %10, align 8
  %18 = load i64, ptr %10, align 8
  %19 = load i64, ptr @_ZN12G1HeapRegion10GrainBytesE, align 8
  %20 = call noundef i64 @_Z8align_upImmTnNSt9enable_ifIXcvbsr3std11is_integralIT_EE5valueEiE4typeELi0EES1_S1_T0_(i64 noundef %18, i64 noundef %19)
  store i64 %20, ptr %10, align 8
  %21 = call noundef zeroext i1 @_ZN7LogImplILN6LogTag4typeE49ELS1_40ELS1_52ELS1_0ELS1_0ELS1_0EE8is_levelEN8LogLevel4typeE(i32 noundef 2)
  br i1 %21, label %23, label %22

22:                                               ; preds = %4
  br label %26

23:                                               ; preds = %4
  %24 = load i64, ptr %7, align 8
  %25 = load i64, ptr %10, align 8
  call void (ptr, ...) @_ZN7LogImplILN6LogTag4typeE49ELS1_40ELS1_52ELS1_0ELS1_0ELS1_0EE5writeILN8LogLevel4typeE2EEEvPKcz(ptr noundef @.str.20, i64 noundef %24, i64 noundef %25)
  br label %26

26:                                               ; preds = %23, %22
  %27 = load ptr, ptr %15, align 8
  %28 = getelementptr inbounds ptr, ptr %27, i64 14
  %29 = load ptr, ptr %28, align 8
  %30 = call noundef zeroext i1 %29(ptr noundef nonnull align 8 dereferenceable(1488) %15)
  br i1 %30, label %31, label %36

31:                                               ; preds = %26
  %32 = call noundef zeroext i1 @_ZN7LogImplILN6LogTag4typeE49ELS1_40ELS1_52ELS1_0ELS1_0ELS1_0EE8is_levelEN8LogLevel4typeE(i32 noundef 2)
  br i1 %32, label %34, label %33

33:                                               ; preds = %31
  br label %35

34:                                               ; preds = %31
  call void (ptr, ...) @_ZN7LogImplILN6LogTag4typeE49ELS1_40ELS1_52ELS1_0ELS1_0ELS1_0EE5writeILN8LogLevel4typeE2EEEvPKcz(ptr noundef @.str.21)
  br label %35

35:                                               ; preds = %34, %33
  store i1 false, ptr %5, align 1
  br label %61

36:                                               ; preds = %26
  %37 = call noundef double @_ZN2os11elapsedTimeEv()
  store double %37, ptr %11, align 8
  %38 = load i64, ptr %10, align 8
  %39 = load i64, ptr @_ZN12G1HeapRegion10GrainBytesE, align 8
  %40 = udiv i64 %38, %39
  %41 = trunc i64 %40 to i32
  store i32 %41, ptr %12, align 4
  %42 = getelementptr inbounds %class.G1CollectedHeap, ptr %15, i32 0, i32 14
  %43 = load i32, ptr %12, align 4
  %44 = load ptr, ptr %8, align 8
  %45 = call noundef i32 @_ZN19G1HeapRegionManager9expand_byEjP13WorkerThreads(ptr noundef nonnull align 8 dereferenceable(232) %42, i32 noundef %43, ptr noundef %44)
  store i32 %45, ptr %13, align 4
  %46 = load ptr, ptr %9, align 8
  %47 = icmp ne ptr %46, null
  br i1 %47, label %48, label %54

48:                                               ; preds = %36
  %49 = call noundef double @_ZN2os11elapsedTimeEv()
  %50 = load double, ptr %11, align 8
  %51 = fsub double %49, %50
  %52 = fmul double %51, 1.000000e+03
  %53 = load ptr, ptr %9, align 8
  store double %52, ptr %53, align 8
  br label %54

54:                                               ; preds = %48, %36
  %55 = load i32, ptr %13, align 4
  %56 = zext i32 %55 to i64
  %57 = load i64, ptr @_ZN12G1HeapRegion10GrainBytesE, align 8
  %58 = mul i64 %56, %57
  store i64 %58, ptr %14, align 8
  %59 = call noundef ptr @_ZNK15G1CollectedHeap6policyEv(ptr noundef nonnull align 8 dereferenceable(1488) %15)
  %60 = call noundef i32 @_ZNK15G1CollectedHeap11num_regionsEv(ptr noundef nonnull align 8 dereferenceable(1488) %15)
  call void @_ZN8G1Policy20record_new_heap_sizeEj(ptr noundef nonnull align 8 dereferenceable(552) %59, i32 noundef %60)
  store i1 true, ptr %5, align 1
  br label %61

61:                                               ; preds = %54, %35
  %62 = load i1, ptr %5, align 1
  ret i1 %62
}