; Function Attrs: mustprogress nounwind uwtable
define hidden noundef zeroext i1 @_ZN15G1CollectedHeap6expandEmP13WorkerThreadsPd(ptr noundef nonnull align 8 dereferenceable(1488) %0, i64 noundef %1, ptr noundef %2, ptr noundef writeonly %3) local_unnamed_addr #0 align 2 {
  %5 = tail call noundef i64 @_ZN13ReservedSpace18page_align_size_upEm(i64 noundef %1) #23
  %6 = load i64, ptr @_ZN12G1HeapRegion10GrainBytesE, align 8
  %7 = add i64 %5, -1
  %8 = add i64 %7, %6
  %9 = sub i64 0, %6
  %10 = and i64 %8, %9
  %11 = load volatile ptr, ptr getelementptr inbounds (i8, ptr @_ZN16LogTagSetMappingILN6LogTag4typeE49ELS1_40ELS1_52ELS1_0ELS1_0ELS1_0EE7_tagsetE, i64 56), align 8
  %.not13 = icmp eq ptr %11, null
  br i1 %.not13, label %13, label %12

12:                                               ; preds = %4
  tail call void (ptr, ...) @_ZN7LogImplILN6LogTag4typeE49ELS1_40ELS1_52ELS1_0ELS1_0ELS1_0EE5writeILN8LogLevel4typeE2EEEvPKcz(ptr noundef nonnull @.str.20, i64 noundef %1, i64 noundef %10)
  br label %13

13:                                               ; preds = %4, %12
  %14 = load ptr, ptr %0, align 8
  %15 = getelementptr inbounds i8, ptr %14, i64 112
  %16 = load ptr, ptr %15, align 8
  %17 = tail call noundef zeroext i1 %16(ptr noundef nonnull align 8 dereferenceable(1488) %0) #23
  br i1 %17, label %18, label %21

18:                                               ; preds = %13
  %19 = load volatile ptr, ptr getelementptr inbounds (i8, ptr @_ZN16LogTagSetMappingILN6LogTag4typeE49ELS1_40ELS1_52ELS1_0ELS1_0ELS1_0EE7_tagsetE, i64 56), align 8
  %.not14 = icmp eq ptr %19, null
  br i1 %.not14, label %37, label %20

20:                                               ; preds = %18
  tail call void (ptr, ...) @_ZN7LogImplILN6LogTag4typeE49ELS1_40ELS1_52ELS1_0ELS1_0ELS1_0EE5writeILN8LogLevel4typeE2EEEvPKcz(ptr noundef nonnull @.str.21)
  br label %37

21:                                               ; preds = %13
  %22 = tail call noundef double @_ZN2os11elapsedTimeEv() #23
  %23 = load i64, ptr @_ZN12G1HeapRegion10GrainBytesE, align 8
  %24 = udiv i64 %10, %23
  %25 = trunc i64 %24 to i32
  %26 = getelementptr inbounds i8, ptr %0, i64 392
  %27 = tail call noundef i32 @_ZN19G1HeapRegionManager9expand_byEjP13WorkerThreads(ptr noundef nonnull align 8 dereferenceable(232) %26, i32 noundef %25, ptr noundef %2) #23
  %.not = icmp eq ptr %3, null
  br i1 %.not, label %32, label %28

28:                                               ; preds = %21
  %29 = tail call noundef double @_ZN2os11elapsedTimeEv() #23
  %30 = fsub double %29, %22
  %31 = fmul double %30, 1.000000e+03
  store double %31, ptr %3, align 8
  br label %32

32:                                               ; preds = %28, %21
  %33 = getelementptr inbounds i8, ptr %0, i64 1064
  %34 = load ptr, ptr %33, align 8
  %35 = getelementptr inbounds i8, ptr %0, i64 408
  %36 = tail call noundef i32 @_ZNK20G1CommittedRegionMap10num_activeEv(ptr noundef nonnull align 8 dereferenceable(64) %35) #23
  tail call void @_ZN8G1Policy20record_new_heap_sizeEj(ptr noundef nonnull align 8 dereferenceable(552) %34, i32 noundef %36) #23
  br label %37

37:                                               ; preds = %20, %18, %32
  %.0 = xor i1 %17, true
  ret i1 %.0
}